
_main:

;led flash.c,1 :: 		void main()
;led flash.c,3 :: 		porta=0x00;
	CLRF       PORTA+0
;led flash.c,4 :: 		trisa=0x00;
	CLRF       TRISA+0
;led flash.c,5 :: 		while(1)
L_main0:
;led flash.c,7 :: 		porta=0b1111;
	MOVLW      15
	MOVWF      PORTA+0
;led flash.c,8 :: 		delay_ms(250);
	MOVLW      3
	MOVWF      R11+0
	MOVLW      138
	MOVWF      R12+0
	MOVLW      85
	MOVWF      R13+0
L_main2:
	DECFSZ     R13+0, 1
	GOTO       L_main2
	DECFSZ     R12+0, 1
	GOTO       L_main2
	DECFSZ     R11+0, 1
	GOTO       L_main2
	NOP
	NOP
;led flash.c,9 :: 		porta=0b0000;
	CLRF       PORTA+0
;led flash.c,10 :: 		delay_ms(250);
	MOVLW      3
	MOVWF      R11+0
	MOVLW      138
	MOVWF      R12+0
	MOVLW      85
	MOVWF      R13+0
L_main3:
	DECFSZ     R13+0, 1
	GOTO       L_main3
	DECFSZ     R12+0, 1
	GOTO       L_main3
	DECFSZ     R11+0, 1
	GOTO       L_main3
	NOP
	NOP
;led flash.c,11 :: 		porta=0b1010;
	MOVLW      10
	MOVWF      PORTA+0
;led flash.c,12 :: 		delay_ms(250);
	MOVLW      3
	MOVWF      R11+0
	MOVLW      138
	MOVWF      R12+0
	MOVLW      85
	MOVWF      R13+0
L_main4:
	DECFSZ     R13+0, 1
	GOTO       L_main4
	DECFSZ     R12+0, 1
	GOTO       L_main4
	DECFSZ     R11+0, 1
	GOTO       L_main4
	NOP
	NOP
;led flash.c,13 :: 		porta=0b0101;
	MOVLW      5
	MOVWF      PORTA+0
;led flash.c,14 :: 		delay_ms(250);
	MOVLW      3
	MOVWF      R11+0
	MOVLW      138
	MOVWF      R12+0
	MOVLW      85
	MOVWF      R13+0
L_main5:
	DECFSZ     R13+0, 1
	GOTO       L_main5
	DECFSZ     R12+0, 1
	GOTO       L_main5
	DECFSZ     R11+0, 1
	GOTO       L_main5
	NOP
	NOP
;led flash.c,16 :: 		porta=0b1110;
	MOVLW      14
	MOVWF      PORTA+0
;led flash.c,17 :: 		delay_ms(250);
	MOVLW      3
	MOVWF      R11+0
	MOVLW      138
	MOVWF      R12+0
	MOVLW      85
	MOVWF      R13+0
L_main6:
	DECFSZ     R13+0, 1
	GOTO       L_main6
	DECFSZ     R12+0, 1
	GOTO       L_main6
	DECFSZ     R11+0, 1
	GOTO       L_main6
	NOP
	NOP
;led flash.c,18 :: 		porta=0b0111;
	MOVLW      7
	MOVWF      PORTA+0
;led flash.c,19 :: 		delay_ms(250);
	MOVLW      3
	MOVWF      R11+0
	MOVLW      138
	MOVWF      R12+0
	MOVLW      85
	MOVWF      R13+0
L_main7:
	DECFSZ     R13+0, 1
	GOTO       L_main7
	DECFSZ     R12+0, 1
	GOTO       L_main7
	DECFSZ     R11+0, 1
	GOTO       L_main7
	NOP
	NOP
;led flash.c,20 :: 		porta=0b0000;
	CLRF       PORTA+0
;led flash.c,21 :: 		delay_ms(1000);
	MOVLW      11
	MOVWF      R11+0
	MOVLW      38
	MOVWF      R12+0
	MOVLW      93
	MOVWF      R13+0
L_main8:
	DECFSZ     R13+0, 1
	GOTO       L_main8
	DECFSZ     R12+0, 1
	GOTO       L_main8
	DECFSZ     R11+0, 1
	GOTO       L_main8
	NOP
	NOP
;led flash.c,24 :: 		}
	GOTO       L_main0
;led flash.c,26 :: 		}
L_end_main:
	GOTO       $+0
; end of _main
